target datalayout = "e-m:e-p270:32:32-p271:32:32-p272:64:64-i64:64-i128:128-f80:128-n8:16:32:64-S128"
target triple = "x86_64-pc-linux-gnu"

%"class.icu_77::UObject" = type { ptr }
%"class.icu_77::NumberFormat" = type <{ %"class.icu_77::Format", i8, [3 x i8], i32, i32, i32, i32, i8, i8, [4 x i16], [2 x i8], i32, [4 x i8] }>
%"class.icu_77::Format" = type { %"class.icu_77::UObject", ptr, ptr }

; Function Attrs: mustprogress nounwind uwtable
define noundef ptr @_ZNK6icu_7712NumberFormat11getCurrencyEv(ptr noundef nonnull align 8 dereferenceable(60) %0) #0 align 2 {
  %2 = alloca ptr, align 8
  store ptr %0, ptr %2, align 8, !tbaa !40
  %3 = load ptr, ptr %2, align 8
  %4 = getelementptr inbounds nuw %"class.icu_77::NumberFormat", ptr %3, i32 0, i32 9
  %5 = getelementptr inbounds [4 x i16], ptr %4, i64 0, i64 0
  ret ptr %5
}

; Function Attrs: mustprogress uwtable
define void @_ZNK6icu_7712NumberFormat20getEffectiveCurrencyEPDsR10UErrorCode(ptr noundef nonnull align 8 dereferenceable(60) %0, ptr noundef %1, ptr noundef nonnull align 4 dereferenceable(4) %2) unnamed_addr #1 align 2 {
  %4 = alloca ptr, align 8
  %5 = alloca ptr, align 8
  %6 = alloca ptr, align 8
  %7 = alloca ptr, align 8
  %8 = alloca ptr, align 8
  store ptr %0, ptr %4, align 8, !tbaa !40
  store ptr %1, ptr %5, align 8, !tbaa !87
  store ptr %2, ptr %6, align 8, !tbaa !22
  %9 = load ptr, ptr %4, align 8
  call void @llvm.lifetime.start.p0(i64 8, ptr %7) #15
  %10 = call noundef ptr @_ZNK6icu_7712NumberFormat11getCurrencyEv(ptr noundef nonnull align 8 dereferenceable(60) %9)
  store ptr %10, ptr %7, align 8, !tbaa !87
  %11 = load ptr, ptr %7, align 8, !tbaa !87
  %12 = load i16, ptr %11, align 2, !tbaa !54
  %13 = zext i16 %12 to i32
  %14 = icmp ne i32 %13, 0
  br i1 %14, label %15, label %21

15:                                               ; preds = %3
  %16 = load ptr, ptr %5, align 8, !tbaa !87
  %17 = load ptr, ptr %7, align 8, !tbaa !87
  %18 = call ptr @u_strncpy_77(ptr noundef %16, ptr noundef %17, i32 noundef 3)
  %19 = load ptr, ptr %5, align 8, !tbaa !87
  %20 = getelementptr inbounds i16, ptr %19, i64 3
  store i16 0, ptr %20, align 2, !tbaa !54
  br label %33

21:                                               ; preds = %3
  call void @llvm.lifetime.start.p0(i64 8, ptr %8) #15
  %22 = load ptr, ptr %6, align 8, !tbaa !22
  %23 = call noundef ptr @_ZNK6icu_776Format11getLocaleIDE18ULocDataLocaleTypeR10UErrorCode(ptr noundef nonnull align 8 dereferenceable(24) %9, i32 noundef 1, ptr noundef nonnull align 4 dereferenceable(4) %22)
  store ptr %23, ptr %8, align 8, !tbaa !17
  %24 = load ptr, ptr %8, align 8, !tbaa !17
  %25 = icmp eq ptr %24, null
  br i1 %25, label %26, label %28

26:                                               ; preds = %21
  %27 = call ptr @uloc_getDefault_77()
  store ptr %27, ptr %8, align 8, !tbaa !17
  br label %28

28:                                               ; preds = %26, %21
  %29 = load ptr, ptr %8, align 8, !tbaa !17
  %30 = load ptr, ptr %5, align 8, !tbaa !87
  %31 = load ptr, ptr %6, align 8, !tbaa !22
  %32 = call i32 @ucurr_forLocale_77(ptr noundef %29, ptr noundef %30, i32 noundef 4, ptr noundef %31)
  call void @llvm.lifetime.end.p0(i64 8, ptr %8) #15
  br label %33

33:                                               ; preds = %28, %15
  call void @llvm.lifetime.end.p0(i64 8, ptr %7) #15
  ret void
}