; Function Attrs: mustprogress uwtable
define void @_ZNK6icu_7712NumberFormat20getEffectiveCurrencyEPDsR10UErrorCode(ptr noundef nonnull align 8 dereferenceable(60) %0, ptr noundef %1, ptr noundef nonnull align 4 dereferenceable(4) %2) unnamed_addr #1 align 2 {
  %4 = getelementptr inbounds nuw i8, ptr %0, i64 46
  %5 = load i16, ptr %4, align 2, !tbaa !36
  %.not = icmp eq i16 %5, 0
  br i1 %.not, label %9, label %6

6:                                                ; preds = %3
  %7 = tail call ptr @u_strncpy_77(ptr noundef %1, ptr noundef nonnull %4, i32 noundef 3)
  %8 = getelementptr inbounds nuw i8, ptr %1, i64 6
  store i16 0, ptr %8, align 2, !tbaa !36
  br label %16

9:                                                ; preds = %3
  %10 = tail call noundef ptr @_ZNK6icu_776Format11getLocaleIDE18ULocDataLocaleTypeR10UErrorCode(ptr noundef nonnull align 8 dereferenceable(24) %0, i32 noundef 1, ptr noundef nonnull align 4 dereferenceable(4) %2)
  %11 = icmp eq ptr %10, null
  br i1 %11, label %12, label %14

12:                                               ; preds = %9
  %13 = tail call ptr @uloc_getDefault_77()
  br label %14

14:                                               ; preds = %12, %9
  %.0 = phi ptr [ %13, %12 ], [ %10, %9 ]
  %15 = tail call i32 @ucurr_forLocale_77(ptr noundef %.0, ptr noundef %1, i32 noundef 4, ptr noundef nonnull %2)
  br label %16

16:                                               ; preds = %14, %6
  ret void
}